target datalayout = "e-m:e-p270:32:32-p271:32:32-p272:64:64-i64:64-i128:128-f80:128-n8:16:32:64-S128"
target triple = "x86_64-pc-linux-gnu"

%class.NavMeshTesterTool = type { %struct.SampleTool, ptr, ptr, ptr, %class.dtQueryFilter, i32, i32, i32, i32, i32, [256 x i32], [256 x i32], i32, [768 x float], [256 x i8], [256 x i32], i32, [3 x float], [6144 x float], i32, [12 x float], [192 x float], i32, i8, [3 x float], [3 x float], [3 x float], [3 x float], i8, float, float, float, i8, i8, i32, [256 x i32], i32, [3 x float], [3 x float], [3 x float], [3 x float], [30 x float], i32 }
%struct.SampleTool = type { ptr }
%class.dtQueryFilter = type { [64 x float], i16, i16 }

@_ZTV10SampleTool = external unnamed_addr constant { [14 x ptr] }, align 8

; Function Attrs: mustprogress nounwind uwtable
define linkonce_odr dso_local void @_ZN13dtQueryFilter15setExcludeFlagsEt(ptr noundef nonnull align 4 dereferenceable(260) %0, i16 noundef zeroext %1) #1 comdat align 2 {
  %3 = alloca ptr, align 8
  %4 = alloca i16, align 2
  store ptr %0, ptr %3, align 8
  store i16 %1, ptr %4, align 2
  %5 = load ptr, ptr %3, align 8
  %6 = load i16, ptr %4, align 2
  %7 = getelementptr inbounds %class.dtQueryFilter, ptr %5, i32 0, i32 2
  store i16 %6, ptr %7, align 2
  ret void
}

; Function Attrs: mustprogress nounwind uwtable
define linkonce_odr dso_local void @_ZN13dtQueryFilter15setIncludeFlagsEt(ptr noundef nonnull align 4 dereferenceable(260) %0, i16 noundef zeroext %1) #1 comdat align 2 {
  %3 = alloca ptr, align 8
  %4 = alloca i16, align 2
  store ptr %0, ptr %3, align 8
  store i16 %1, ptr %4, align 2
  %5 = load ptr, ptr %3, align 8
  %6 = load i16, ptr %4, align 2
  %7 = getelementptr inbounds %class.dtQueryFilter, ptr %5, i32 0, i32 1
  store i16 %6, ptr %7, align 4
  ret void
}

; Function Attrs: mustprogress nounwind uwtable
define linkonce_odr dso_local void @_ZN10SampleToolC2Ev(ptr noundef nonnull align 8 dereferenceable(8) %0) unnamed_addr #1 comdat align 2 {
  %2 = alloca ptr, align 8
  store ptr %0, ptr %2, align 8
  %3 = load ptr, ptr %2, align 8
  store ptr getelementptr inbounds ({ [14 x ptr] }, ptr @_ZTV10SampleTool, i32 0, i32 0, i32 2), ptr %3, align 8
  ret void
}

; Function Attrs: mustprogress uwtable
define dso_local void @_ZN17NavMeshTesterToolC2Ev(ptr noundef nonnull align 8 dereferenceable(33408) %0) unnamed_addr #0 align 2 personality ptr @__gxx_personality_v0 {
  %2 = alloca ptr, align 8
  %3 = alloca ptr, align 8
  %4 = alloca i32, align 4
  store ptr %0, ptr %2, align 8
  %5 = load ptr, ptr %2, align 8
  call void @_ZN10SampleToolC2Ev(ptr noundef nonnull align 8 dereferenceable(8) %5) #7
  store ptr getelementptr inbounds ({ [14 x ptr] }, ptr @_ZTV17NavMeshTesterTool, i32 0, i32 0, i32 2), ptr %5, align 8
  %6 = getelementptr inbounds %class.NavMeshTesterTool, ptr %5, i32 0, i32 1
  store ptr null, ptr %6, align 8
  %7 = getelementptr inbounds %class.NavMeshTesterTool, ptr %5, i32 0, i32 2
  store ptr null, ptr %7, align 8
  %8 = getelementptr inbounds %class.NavMeshTesterTool, ptr %5, i32 0, i32 3
  store ptr null, ptr %8, align 8
  %9 = getelementptr inbounds %class.NavMeshTesterTool, ptr %5, i32 0, i32 4
  invoke void @_ZN13dtQueryFilterC1Ev(ptr noundef nonnull align 4 dereferenceable(260) %9)
          to label %10 unwind label %40

10:                                               ; preds = %1
  %11 = getelementptr inbounds %class.NavMeshTesterTool, ptr %5, i32 0, i32 5
  store i32 -2147483648, ptr %11, align 4
  %12 = getelementptr inbounds %class.NavMeshTesterTool, ptr %5, i32 0, i32 6
  store i32 0, ptr %12, align 8
  %13 = getelementptr inbounds %class.NavMeshTesterTool, ptr %5, i32 0, i32 7
  store i32 0, ptr %13, align 4
  %14 = getelementptr inbounds %class.NavMeshTesterTool, ptr %5, i32 0, i32 8
  store i32 0, ptr %14, align 8
  %15 = getelementptr inbounds %class.NavMeshTesterTool, ptr %5, i32 0, i32 9
  store i32 0, ptr %15, align 4
  %16 = getelementptr inbounds %class.NavMeshTesterTool, ptr %5, i32 0, i32 12
  store i32 0, ptr %16, align 8
  %17 = getelementptr inbounds %class.NavMeshTesterTool, ptr %5, i32 0, i32 16
  store i32 0, ptr %17, align 4
  %18 = getelementptr inbounds %class.NavMeshTesterTool, ptr %5, i32 0, i32 19
  store i32 0, ptr %18, align 4
  %19 = getelementptr inbounds %class.NavMeshTesterTool, ptr %5, i32 0, i32 22
  store i32 0, ptr %19, align 8
  %20 = getelementptr inbounds %class.NavMeshTesterTool, ptr %5, i32 0, i32 23
  store i8 0, ptr %20, align 4
  %21 = getelementptr inbounds %class.NavMeshTesterTool, ptr %5, i32 0, i32 28
  store i8 0, ptr %21, align 8
  %22 = getelementptr inbounds %class.NavMeshTesterTool, ptr %5, i32 0, i32 29
  store float 0.000000e+00, ptr %22, align 4
  %23 = getelementptr inbounds %class.NavMeshTesterTool, ptr %5, i32 0, i32 32
  store i8 0, ptr %23, align 8
  %24 = getelementptr inbounds %class.NavMeshTesterTool, ptr %5, i32 0, i32 33
  store i8 0, ptr %24, align 1
  %25 = getelementptr inbounds %class.NavMeshTesterTool, ptr %5, i32 0, i32 34
  store i32 0, ptr %25, align 4
  %26 = getelementptr inbounds %class.NavMeshTesterTool, ptr %5, i32 0, i32 36
  store i32 0, ptr %26, align 8
  %27 = getelementptr inbounds %class.NavMeshTesterTool, ptr %5, i32 0, i32 42
  store i32 0, ptr %27, align 4
  %28 = getelementptr inbounds %class.NavMeshTesterTool, ptr %5, i32 0, i32 4
  invoke void @_ZN13dtQueryFilter15setIncludeFlagsEt(ptr noundef nonnull align 4 dereferenceable(260) %28, i16 noundef zeroext -17)
          to label %29 unwind label %40

29:                                               ; preds = %10
  %30 = getelementptr inbounds %class.NavMeshTesterTool, ptr %5, i32 0, i32 4
  invoke void @_ZN13dtQueryFilter15setExcludeFlagsEt(ptr noundef nonnull align 4 dereferenceable(260) %30, i16 noundef zeroext 0)
          to label %31 unwind label %40

31:                                               ; preds = %29
  %32 = getelementptr inbounds %class.NavMeshTesterTool, ptr %5, i32 0, i32 17
  %33 = getelementptr inbounds [3 x float], ptr %32, i64 0, i64 0
  store float 2.000000e+00, ptr %33, align 8
  %34 = getelementptr inbounds %class.NavMeshTesterTool, ptr %5, i32 0, i32 17
  %35 = getelementptr inbounds [3 x float], ptr %34, i64 0, i64 1
  store float 4.000000e+00, ptr %35, align 4
  %36 = getelementptr inbounds %class.NavMeshTesterTool, ptr %5, i32 0, i32 17
  %37 = getelementptr inbounds [3 x float], ptr %36, i64 0, i64 2
  store float 2.000000e+00, ptr %37, align 8
  %38 = getelementptr inbounds %class.NavMeshTesterTool, ptr %5, i32 0, i32 30
  store float 2.500000e+00, ptr %38, align 8
  %39 = getelementptr inbounds %class.NavMeshTesterTool, ptr %5, i32 0, i32 31
  store float 5.000000e+00, ptr %39, align 4
  ret void

40:                                               ; preds = %29, %10, %1
  %41 = landingpad { ptr, i32 }
          cleanup
  %42 = extractvalue { ptr, i32 } %41, 0
  store ptr %42, ptr %3, align 8
  %43 = extractvalue { ptr, i32 } %41, 1
  store i32 %43, ptr %4, align 4
  call void @_ZN10SampleToolD2Ev(ptr noundef nonnull align 8 dereferenceable(8) %5) #7
  br label %44

44:                                               ; preds = %40
  %45 = load ptr, ptr %3, align 8
  %46 = load i32, ptr %4, align 4
  %47 = insertvalue { ptr, i32 } poison, ptr %45, 0
  %48 = insertvalue { ptr, i32 } %47, i32 %46, 1
  resume { ptr, i32 } %48
}