; Function Attrs: mustprogress uwtable
define dso_local void @_ZN17NavMeshTesterToolC2Ev(ptr noundef nonnull align 8 dereferenceable(33408) %0) unnamed_addr #0 align 2 personality ptr @__gxx_personality_v0 {
  store ptr getelementptr inbounds ({ [14 x ptr] }, ptr @_ZTV17NavMeshTesterTool, i64 0, i32 0, i64 2), ptr %0, align 8
  %2 = getelementptr inbounds i8, ptr %0, i64 8
  %3 = getelementptr inbounds i8, ptr %0, i64 32
  tail call void @llvm.memset.p0.i64(ptr noundef nonnull align 8 dereferenceable(24) %2, i8 0, i64 24, i1 false)
  invoke void @_ZN13dtQueryFilterC1Ev(ptr noundef nonnull align 4 dereferenceable(260) %3)
          to label %4 unwind label %24

4:                                                ; preds = %1
  %5 = getelementptr inbounds i8, ptr %0, i64 292
  store i32 -2147483648, ptr %5, align 4
  %6 = getelementptr inbounds i8, ptr %0, i64 296
  %7 = getelementptr inbounds i8, ptr %0, i64 2360
  store i32 0, ptr %7, align 8
  %8 = getelementptr inbounds i8, ptr %0, i64 6716
  store i32 0, ptr %8, align 4
  %9 = getelementptr inbounds i8, ptr %0, i64 31308
  store i32 0, ptr %9, align 4
  %10 = getelementptr inbounds i8, ptr %0, i64 32128
  store i32 0, ptr %10, align 8
  %11 = getelementptr inbounds i8, ptr %0, i64 32132
  store i8 0, ptr %11, align 4
  %12 = getelementptr inbounds i8, ptr %0, i64 32184
  store i8 0, ptr %12, align 8
  %13 = getelementptr inbounds i8, ptr %0, i64 32188
  %14 = getelementptr inbounds i8, ptr %0, i64 32200
  store i8 0, ptr %14, align 8
  %15 = getelementptr inbounds i8, ptr %0, i64 32201
  store i8 0, ptr %15, align 1
  %16 = getelementptr inbounds i8, ptr %0, i64 32204
  store i32 0, ptr %16, align 4
  %17 = getelementptr inbounds i8, ptr %0, i64 33232
  store i32 0, ptr %17, align 8
  %18 = getelementptr inbounds i8, ptr %0, i64 33404
  store i32 0, ptr %18, align 4
  %19 = getelementptr inbounds i8, ptr %0, i64 288
  tail call void @llvm.memset.p0.i64(ptr noundef nonnull align 8 dereferenceable(16) %6, i8 0, i64 16, i1 false)
  store i16 -17, ptr %19, align 8
  %20 = getelementptr inbounds i8, ptr %0, i64 290
  store i16 0, ptr %20, align 2
  %21 = getelementptr inbounds i8, ptr %0, i64 6720
  store <2 x float> <float 2.000000e+00, float 4.000000e+00>, ptr %21, align 8
  %22 = getelementptr inbounds i8, ptr %0, i64 6728
  store float 2.000000e+00, ptr %22, align 8
  store <2 x float> <float 0.000000e+00, float 2.500000e+00>, ptr %13, align 4
  %23 = getelementptr inbounds i8, ptr %0, i64 32196
  store float 5.000000e+00, ptr %23, align 4
  ret void

24:                                               ; preds = %1
  %25 = landingpad { ptr, i32 }
          cleanup
  tail call void @_ZN10SampleToolD2Ev(ptr noundef nonnull align 8 dereferenceable(8) %0) #14
  resume { ptr, i32 } %25
}